; Function Attrs: mustprogress uwtable
define void @_ZN32pxrInternal_v0_24__pxrReserved__15TfDiagnosticMgr9PostErrorERKNS_16TfDiagnosticBaseE(ptr noundef nonnull align 8 dereferenceable(481) %0, ptr noundef nonnull align 8 dereferenceable(145) %1) local_unnamed_addr #0 align 2 personality ptr @__gxx_personality_v0 {
  %3 = alloca %"union.std::any::_Arg", align 8
  %4 = alloca %"class.std::any", align 8
  %5 = getelementptr inbounds nuw i8, ptr %1, i64 72
  %.sroa.0.0.copyload.i = load ptr, ptr %5, align 8
  %.sroa.2.0..sroa_idx.i = getelementptr inbounds nuw i8, ptr %1, i64 80
  %.sroa.2.0.copyload.i = load i32, ptr %.sroa.2.0..sroa_idx.i, align 8
  %6 = getelementptr inbounds nuw i8, ptr %1, i64 88
  %7 = tail call noundef ptr @_ZNKSt7__cxx1112basic_stringIcSt11char_traitsIcESaIcEE5c_strEv(ptr noundef nonnull align 8 dereferenceable(32) %6) #23
  %8 = getelementptr inbounds nuw i8, ptr %1, i64 40
  %9 = getelementptr inbounds nuw i8, ptr %1, i64 120
  call void @llvm.lifetime.start.p0(i64 8, ptr nonnull %3)
  %10 = getelementptr inbounds nuw i8, ptr %4, i64 8
  store ptr null, ptr %10, align 8
  %11 = load ptr, ptr %9, align 8
  %.not.i = icmp eq ptr %11, null
  br i1 %.not.i, label %12, label %13

12:                                               ; preds = %2
  store ptr null, ptr %4, align 8
  br label %_ZNSt3anyC2ERKS_.exit

13:                                               ; preds = %2
  store ptr %4, ptr %3, align 8
  call void %11(i32 noundef 2, ptr noundef nonnull align 8 dereferenceable(16) %9, ptr noundef nonnull %3)
  br label %_ZNSt3anyC2ERKS_.exit

_ZNSt3anyC2ERKS_.exit:                            ; preds = %12, %13
  call void @llvm.lifetime.end.p0(i64 8, ptr nonnull %3)
  %14 = getelementptr inbounds nuw i8, ptr %1, i64 144
  %15 = load i8, ptr %14, align 8
  %16 = trunc i8 %15 to i1
  invoke void @_ZN32pxrInternal_v0_24__pxrReserved__15TfDiagnosticMgr9PostErrorENS_6TfEnumEPKcRKNS_13TfCallContextERKNSt7__cxx1112basic_stringIcSt11char_traitsIcESaIcEEESt3anyb(ptr noundef nonnull align 8 dereferenceable(481) %0, ptr %.sroa.0.0.copyload.i, i32 %.sroa.2.0.copyload.i, ptr noundef %7, ptr noundef nonnull align 8 dereferenceable(33) %1, ptr noundef nonnull align 8 dereferenceable(32) %8, ptr noundef nonnull %4, i1 noundef zeroext %16)
          to label %17 unwind label %23

17:                                               ; preds = %_ZNSt3anyC2ERKS_.exit
  %18 = load ptr, ptr %4, align 8
  %.not.i.i = icmp eq ptr %18, null
  br i1 %.not.i.i, label %_ZNSt3anyD2Ev.exit, label %19

19:                                               ; preds = %17
  invoke void %18(i32 noundef 3, ptr noundef nonnull align 8 dereferenceable(16) %4, ptr noundef null)
          to label %_ZNSt3anyD2Ev.exit unwind label %20

20:                                               ; preds = %19
  %21 = landingpad { ptr, i32 }
          catch ptr null
  %22 = extractvalue { ptr, i32 } %21, 0
  call void @__clang_call_terminate(ptr %22) #30
  unreachable

_ZNSt3anyD2Ev.exit:                               ; preds = %19, %17
  ret void

23:                                               ; preds = %_ZNSt3anyC2ERKS_.exit
  %24 = landingpad { ptr, i32 }
          cleanup
  call void @_ZNSt3anyD2Ev(ptr noundef nonnull align 8 dereferenceable(16) %4) #23
  resume { ptr, i32 } %24
}